Archive member included because of file (symbol)

..\..\..\..\..\..\..\dev\gcc-arm\arm-none-eabi\lib\armv7e-m\fpu\libg.a(lib_a-memcpy.o)
                              ..\obj\queue.o (memcpy)
..\..\..\..\..\..\..\dev\gcc-arm\arm-none-eabi\lib\armv7e-m\fpu\libg.a(lib_a-memset.o)
                              ..\obj\main.o (memset)
..\..\..\..\..\..\..\dev\gcc-arm\arm-none-eabi\lib\armv7e-m\fpu\libg.a(lib_a-strncpy.o)
                              ..\obj\tasks.o (strncpy)

Allocating common symbols
Common symbol       size              file

RAM_Buffer          0xc600            ..\obj\main.o

Discarded input sections

 .text          0x00000000        0x0 ..\obj\i2c.o
 .data          0x00000000        0x0 ..\obj\i2c.o
 .bss           0x00000000        0x0 ..\obj\i2c.o
 .text.I2C_read_ack
                0x00000000       0x2c ..\obj\i2c.o
 .text          0x00000000        0x0 ..\obj\stm32f4xx_usart.o
 .data          0x00000000        0x0 ..\obj\stm32f4xx_usart.o
 .bss           0x00000000        0x0 ..\obj\stm32f4xx_usart.o
 .text.USART_DeInit
                0x00000000       0xe8 ..\obj\stm32f4xx_usart.o
 .text.USART_StructInit
                0x00000000       0x1c ..\obj\stm32f4xx_usart.o
 .text.USART_ClockInit
                0x00000000       0x28 ..\obj\stm32f4xx_usart.o
 .text.USART_ClockStructInit
                0x00000000       0x10 ..\obj\stm32f4xx_usart.o
 .text.USART_SetPrescaler
                0x00000000       0x14 ..\obj\stm32f4xx_usart.o
 .text.USART_OneBitMethodCmd
                0x00000000       0x20 ..\obj\stm32f4xx_usart.o
 .text.USART_SetAddress
                0x00000000       0x1c ..\obj\stm32f4xx_usart.o
 .text.USART_ReceiverWakeUpCmd
                0x00000000       0x20 ..\obj\stm32f4xx_usart.o
 .text.USART_WakeUpConfig
                0x00000000       0x1c ..\obj\stm32f4xx_usart.o
 .text.USART_LINBreakDetectLengthConfig
                0x00000000       0x1c ..\obj\stm32f4xx_usart.o
 .text.USART_LINCmd
                0x00000000       0x20 ..\obj\stm32f4xx_usart.o
 .text.USART_SendBreak
                0x00000000        0xc ..\obj\stm32f4xx_usart.o
 .text.USART_HalfDuplexCmd
                0x00000000       0x20 ..\obj\stm32f4xx_usart.o
 .text.USART_SetGuardTime
                0x00000000       0x14 ..\obj\stm32f4xx_usart.o
 .text.USART_SmartCardCmd
                0x00000000       0x20 ..\obj\stm32f4xx_usart.o
 .text.USART_SmartCardNACKCmd
                0x00000000       0x20 ..\obj\stm32f4xx_usart.o
 .text.USART_IrDAConfig
                0x00000000       0x1c ..\obj\stm32f4xx_usart.o
 .text.USART_IrDACmd
                0x00000000       0x20 ..\obj\stm32f4xx_usart.o
 .text.USART_DMACmd
                0x00000000       0x18 ..\obj\stm32f4xx_usart.o
 .text.USART_ITConfig
                0x00000000       0x3c ..\obj\stm32f4xx_usart.o
 .text.USART_ClearFlag
                0x00000000        0xc ..\obj\stm32f4xx_usart.o
 .text.USART_GetITStatus
                0x00000000       0x50 ..\obj\stm32f4xx_usart.o
 .text.USART_ClearITPendingBit
                0x00000000       0x18 ..\obj\stm32f4xx_usart.o
 .text          0x00000000        0x0 ..\obj\startup_stm32f4xx.o
 .data          0x00000000        0x0 ..\obj\startup_stm32f4xx.o
 .bss           0x00000000        0x0 ..\obj\startup_stm32f4xx.o
 .text          0x00000000        0x0 ..\obj\main.o
 .text.usPrintChar
                0x00000000       0x2c ..\obj\main.o
 .text.PWM_init
                0x00000000       0xd4 ..\obj\main.o
 .text.vServo   0x00000000       0x14 ..\obj\main.o
 .text          0x00000000        0x0 ..\obj\stm32f4xx_rcc.o
 .bss           0x00000000        0x0 ..\obj\stm32f4xx_rcc.o
 .text.RCC_DeInit
                0x00000000       0x38 ..\obj\stm32f4xx_rcc.o
 .text.RCC_HSEConfig
                0x00000000       0x14 ..\obj\stm32f4xx_rcc.o
 .text.RCC_AdjustHSICalibrationValue
                0x00000000       0x18 ..\obj\stm32f4xx_rcc.o
 .text.RCC_HSICmd
                0x00000000        0xc ..\obj\stm32f4xx_rcc.o
 .text.RCC_LSEConfig
                0x00000000       0x3c ..\obj\stm32f4xx_rcc.o
 .text.RCC_LSICmd
                0x00000000        0xc ..\obj\stm32f4xx_rcc.o
 .text.RCC_PLLConfig
                0x00000000       0x24 ..\obj\stm32f4xx_rcc.o
 .text.RCC_PLLCmd
                0x00000000        0xc ..\obj\stm32f4xx_rcc.o
 .text.RCC_PLLI2SConfig
                0x00000000       0x18 ..\obj\stm32f4xx_rcc.o
 .text.RCC_PLLI2SCmd
                0x00000000        0xc ..\obj\stm32f4xx_rcc.o
 .text.RCC_ClockSecuritySystemCmd
                0x00000000        0xc ..\obj\stm32f4xx_rcc.o
 .text.RCC_MCO1Config
                0x00000000       0x18 ..\obj\stm32f4xx_rcc.o
 .text.RCC_SYSCLKConfig
                0x00000000       0x14 ..\obj\stm32f4xx_rcc.o
 .text.RCC_GetSYSCLKSource
                0x00000000       0x10 ..\obj\stm32f4xx_rcc.o
 .text.RCC_HCLKConfig
                0x00000000       0x14 ..\obj\stm32f4xx_rcc.o
 .text.RCC_PCLK1Config
                0x00000000       0x14 ..\obj\stm32f4xx_rcc.o
 .text.RCC_PCLK2Config
                0x00000000       0x18 ..\obj\stm32f4xx_rcc.o
 .text.RCC_RTCCLKConfig
                0x00000000       0x3c ..\obj\stm32f4xx_rcc.o
 .text.RCC_RTCCLKCmd
                0x00000000        0xc ..\obj\stm32f4xx_rcc.o
 .text.RCC_BackupResetCmd
                0x00000000        0xc ..\obj\stm32f4xx_rcc.o
 .text.RCC_I2SCLKConfig
                0x00000000        0xc ..\obj\stm32f4xx_rcc.o
 .text.RCC_AHB3PeriphClockCmd
                0x00000000       0x24 ..\obj\stm32f4xx_rcc.o
 .text.RCC_APB2PeriphClockCmd
                0x00000000       0x24 ..\obj\stm32f4xx_rcc.o
 .text.RCC_AHB1PeriphResetCmd
                0x00000000       0x24 ..\obj\stm32f4xx_rcc.o
 .text.RCC_AHB2PeriphResetCmd
                0x00000000       0x24 ..\obj\stm32f4xx_rcc.o
 .text.RCC_AHB3PeriphResetCmd
                0x00000000       0x24 ..\obj\stm32f4xx_rcc.o
 .text.RCC_APB1PeriphResetCmd
                0x00000000       0x24 ..\obj\stm32f4xx_rcc.o
 .text.RCC_APB2PeriphResetCmd
                0x00000000       0x24 ..\obj\stm32f4xx_rcc.o
 .text.RCC_AHB1PeriphClockLPModeCmd
                0x00000000       0x24 ..\obj\stm32f4xx_rcc.o
 .text.RCC_AHB2PeriphClockLPModeCmd
                0x00000000       0x24 ..\obj\stm32f4xx_rcc.o
 .text.RCC_AHB3PeriphClockLPModeCmd
                0x00000000       0x24 ..\obj\stm32f4xx_rcc.o
 .text.RCC_APB1PeriphClockLPModeCmd
                0x00000000       0x24 ..\obj\stm32f4xx_rcc.o
 .text.RCC_APB2PeriphClockLPModeCmd
                0x00000000       0x24 ..\obj\stm32f4xx_rcc.o
 .text.RCC_ITConfig
                0x00000000       0x24 ..\obj\stm32f4xx_rcc.o
 .text.RCC_GetFlagStatus
                0x00000000       0x34 ..\obj\stm32f4xx_rcc.o
 .text.RCC_WaitForHSEStartUp
                0x00000000       0x3c ..\obj\stm32f4xx_rcc.o
 .text.RCC_ClearFlag
                0x00000000       0x14 ..\obj\stm32f4xx_rcc.o
 .text.RCC_GetITStatus
                0x00000000       0x14 ..\obj\stm32f4xx_rcc.o
 .text.RCC_ClearITPendingBit
                0x00000000        0xc ..\obj\stm32f4xx_rcc.o
 .text          0x00000000        0x0 ..\obj\timers.o
 .data          0x00000000        0x0 ..\obj\timers.o
 .bss           0x00000000        0x0 ..\obj\timers.o
 .text          0x00000000        0x0 ..\obj\printf.o
 .data          0x00000000      0x430 ..\obj\printf.o
 .bss           0x00000000        0x0 ..\obj\printf.o
 .text.PrintChar
                0x00000000       0x2c ..\obj\printf.o
 .text.PutChar  0x00000000        0x8 ..\obj\printf.o
 .text.PutString
                0x00000000       0x20 ..\obj\printf.o
 .text.PutUnsignedInt
                0x00000000       0x84 ..\obj\printf.o
 .text.PutSignedInt
                0x00000000       0xac ..\obj\printf.o
 .text.PutHexa  0x00000000       0x98 ..\obj\printf.o
 .text.vsnprintf
                0x00000000      0x174 ..\obj\printf.o
 .text.snprintf
                0x00000000       0x1c ..\obj\printf.o
 .text.vsprintf
                0x00000000       0x14 ..\obj\printf.o
 .text.sprintf  0x00000000       0x1c ..\obj\printf.o
 .text.fputc    0x00000000       0x2c ..\obj\printf.o
 .text.fputs    0x00000000       0x38 ..\obj\printf.o
 .text.puts     0x00000000       0x14 ..\obj\printf.o
 .text.vfprintf
                0x00000000       0x50 ..\obj\printf.o
 .text.fprintf  0x00000000       0x1c ..\obj\printf.o
 .text.vprintf  0x00000000       0x1c ..\obj\printf.o
 .text.printf   0x00000000       0x1c ..\obj\printf.o
 .rodata.str1.4
                0x00000000       0x24 ..\obj\printf.o
 .text          0x00000000        0x0 ..\obj\stm32f4xx_dcmi.o
 .data          0x00000000        0x0 ..\obj\stm32f4xx_dcmi.o
 .bss           0x00000000        0x0 ..\obj\stm32f4xx_dcmi.o
 .text.DCMI_StructInit
                0x00000000       0x14 ..\obj\stm32f4xx_dcmi.o
 .text.DCMI_CROPConfig
                0x00000000       0x20 ..\obj\stm32f4xx_dcmi.o
 .text.DCMI_CROPCmd
                0x00000000       0x28 ..\obj\stm32f4xx_dcmi.o
 .text.DCMI_SetEmbeddedSynchroCodes
                0x00000000       0x24 ..\obj\stm32f4xx_dcmi.o
 .text.DCMI_JPEGCmd
                0x00000000       0x28 ..\obj\stm32f4xx_dcmi.o
 .text.DCMI_ReadData
                0x00000000        0xc ..\obj\stm32f4xx_dcmi.o
 .text.DCMI_GetFlagStatus
                0x00000000       0x30 ..\obj\stm32f4xx_dcmi.o
 .text.DCMI_ClearFlag
                0x00000000        0xc ..\obj\stm32f4xx_dcmi.o
 .text          0x00000000        0x0 ..\obj\tasks.o
 .text.vTaskEndScheduler
                0x00000000       0x1c ..\obj\tasks.o
 .text.xTaskGetTickCount
                0x00000000       0x18 ..\obj\tasks.o
 .text.xTaskGetTickCountFromISR
                0x00000000       0x18 ..\obj\tasks.o
 .text.uxTaskGetNumberOfTasks
                0x00000000       0x10 ..\obj\tasks.o
 .text          0x00000000        0x0 ..\obj\stm32f4xx_gpio.o
 .data          0x00000000        0x0 ..\obj\stm32f4xx_gpio.o
 .bss           0x00000000        0x0 ..\obj\stm32f4xx_gpio.o
 .text.GPIO_DeInit
                0x00000000      0x158 ..\obj\stm32f4xx_gpio.o
 .text.GPIO_StructInit
                0x00000000       0x14 ..\obj\stm32f4xx_gpio.o
 .text.GPIO_PinLockConfig
                0x00000000       0x24 ..\obj\stm32f4xx_gpio.o
 .text.GPIO_ReadInputDataBit
                0x00000000        0xc ..\obj\stm32f4xx_gpio.o
 .text.GPIO_ReadInputData
                0x00000000        0x8 ..\obj\stm32f4xx_gpio.o
 .text.GPIO_ReadOutputDataBit
                0x00000000        0xc ..\obj\stm32f4xx_gpio.o
 .text.GPIO_ReadOutputData
                0x00000000        0x8 ..\obj\stm32f4xx_gpio.o
 .text.GPIO_WriteBit
                0x00000000        0xc ..\obj\stm32f4xx_gpio.o
 .text.GPIO_Write
                0x00000000        0x4 ..\obj\stm32f4xx_gpio.o
 .text.GPIO_ToggleBits
                0x00000000        0x8 ..\obj\stm32f4xx_gpio.o
 .text          0x00000000        0x0 ..\obj\list.o
 .data          0x00000000        0x0 ..\obj\list.o
 .bss           0x00000000        0x0 ..\obj\list.o
 .text          0x00000000        0x0 ..\obj\system_stm32f4xx.o
 .data          0x00000000       0x14 ..\obj\system_stm32f4xx.o
 .bss           0x00000000        0x0 ..\obj\system_stm32f4xx.o
 .text.SystemCoreClockUpdate
                0x00000000       0xdc ..\obj\system_stm32f4xx.o
 .text          0x00000000        0x0 ..\obj\syscalls.o
 .data          0x00000000        0x0 ..\obj\syscalls.o
 .bss           0x00000000        0x4 ..\obj\syscalls.o
 .text._sbrk    0x00000000       0x30 ..\obj\syscalls.o
 .text.link     0x00000000        0x8 ..\obj\syscalls.o
 .text._close   0x00000000        0x8 ..\obj\syscalls.o
 .text._fstat   0x00000000        0xc ..\obj\syscalls.o
 .text._isatty  0x00000000        0x8 ..\obj\syscalls.o
 .text._lseek   0x00000000        0x8 ..\obj\syscalls.o
 .text._read    0x00000000        0x8 ..\obj\syscalls.o
 .text._write   0x00000000        0x4 ..\obj\syscalls.o
 .text.abort    0x00000000        0x4 ..\obj\syscalls.o
 .text          0x00000000        0x0 ..\obj\stm32f4xx_dma.o
 .data          0x00000000        0x0 ..\obj\stm32f4xx_dma.o
 .bss           0x00000000        0x0 ..\obj\stm32f4xx_dma.o
 .text.DMA_StructInit
                0x00000000       0x24 ..\obj\stm32f4xx_dma.o
 .text.DMA_PeriphIncOffsetSizeConfig
                0x00000000       0x18 ..\obj\stm32f4xx_dma.o
 .text.DMA_FlowControllerConfig
                0x00000000       0x18 ..\obj\stm32f4xx_dma.o
 .text.DMA_SetCurrDataCounter
                0x00000000        0x4 ..\obj\stm32f4xx_dma.o
 .text.DMA_GetCurrDataCounter
                0x00000000        0x8 ..\obj\stm32f4xx_dma.o
 .text.DMA_DoubleBufferModeConfig
                0x00000000       0x18 ..\obj\stm32f4xx_dma.o
 .text.DMA_DoubleBufferModeCmd
                0x00000000       0x18 ..\obj\stm32f4xx_dma.o
 .text.DMA_MemoryTargetConfig
                0x00000000        0xc ..\obj\stm32f4xx_dma.o
 .text.DMA_GetCurrentMemoryTarget
                0x00000000        0x8 ..\obj\stm32f4xx_dma.o
 .text.DMA_GetFIFOStatus
                0x00000000        0x8 ..\obj\stm32f4xx_dma.o
 .text.DMA_GetFlagStatus
                0x00000000       0x44 ..\obj\stm32f4xx_dma.o
 .text.DMA_ClearFlag
                0x00000000       0x3c ..\obj\stm32f4xx_dma.o
 .text.DMA_ITConfig
                0x00000000       0x3c ..\obj\stm32f4xx_dma.o
 .text.DMA_GetITStatus
                0x00000000       0x68 ..\obj\stm32f4xx_dma.o
 .text.DMA_ClearITPendingBit
                0x00000000       0x3c ..\obj\stm32f4xx_dma.o
 .text          0x00000000        0x0 ..\obj\queue.o
 .data          0x00000000        0x0 ..\obj\queue.o
 .bss           0x00000000        0x0 ..\obj\queue.o
 .text.xQueueCreateMutex
                0x00000000       0x4c ..\obj\queue.o
 .text.xQueueReceiveFromISR
                0x00000000       0x70 ..\obj\queue.o
 .text.uxQueueMessagesWaiting
                0x00000000       0x14 ..\obj\queue.o
 .text.uxQueueMessagesWaitingFromISR
                0x00000000        0x4 ..\obj\queue.o
 .text.vQueueDelete
                0x00000000       0x14 ..\obj\queue.o
 .text.xQueueIsQueueEmptyFromISR
                0x00000000        0xc ..\obj\queue.o
 .text.xQueueIsQueueFullFromISR
                0x00000000       0x10 ..\obj\queue.o
 .text          0x00000000        0x0 ..\obj\port.o
 .bss           0x00000000        0x0 ..\obj\port.o
 .text.vPortEndScheduler
                0x00000000        0x4 ..\obj\port.o
 .rodata        0x00000000        0x4 ..\obj\port.o
 .text          0x00000000        0x0 ..\obj\croutine.o
 .data          0x00000000        0x0 ..\obj\croutine.o
 .bss           0x00000000       0x94 ..\obj\croutine.o
 .text.xCoRoutineCreate
                0x00000000       0xe0 ..\obj\croutine.o
 .text.vCoRoutineAddToDelayedList
                0x00000000       0x58 ..\obj\croutine.o
 .text.vCoRoutineSchedule
                0x00000000      0x1ac ..\obj\croutine.o
 .text.xCoRoutineRemoveFromEventList
                0x00000000       0x34 ..\obj\croutine.o
 .text          0x00000000        0x0 ..\obj\stm32f4xx_i2c.o
 .data          0x00000000        0x0 ..\obj\stm32f4xx_i2c.o
 .bss           0x00000000        0x0 ..\obj\stm32f4xx_i2c.o
 .text.I2C_DeInit
                0x00000000       0x74 ..\obj\stm32f4xx_i2c.o
 .text.I2C_StructInit
                0x00000000       0x20 ..\obj\stm32f4xx_i2c.o
 .text.I2C_OwnAddress2Config
                0x00000000       0x18 ..\obj\stm32f4xx_i2c.o
 .text.I2C_DualAddressCmd
                0x00000000       0x20 ..\obj\stm32f4xx_i2c.o
 .text.I2C_GeneralCallCmd
                0x00000000       0x20 ..\obj\stm32f4xx_i2c.o
 .text.I2C_SoftwareResetCmd
                0x00000000       0x20 ..\obj\stm32f4xx_i2c.o
 .text.I2C_StretchClockCmd
                0x00000000       0x20 ..\obj\stm32f4xx_i2c.o
 .text.I2C_FastModeDutyCycleConfig
                0x00000000       0x24 ..\obj\stm32f4xx_i2c.o
 .text.I2C_NACKPositionConfig
                0x00000000       0x24 ..\obj\stm32f4xx_i2c.o
 .text.I2C_SMBusAlertConfig
                0x00000000       0x24 ..\obj\stm32f4xx_i2c.o
 .text.I2C_ARPCmd
                0x00000000       0x20 ..\obj\stm32f4xx_i2c.o
 .text.I2C_TransmitPEC
                0x00000000       0x20 ..\obj\stm32f4xx_i2c.o
 .text.I2C_PECPositionConfig
                0x00000000       0x24 ..\obj\stm32f4xx_i2c.o
 .text.I2C_CalculatePEC
                0x00000000       0x20 ..\obj\stm32f4xx_i2c.o
 .text.I2C_GetPEC
                0x00000000        0x8 ..\obj\stm32f4xx_i2c.o
 .text.I2C_DMACmd
                0x00000000       0x20 ..\obj\stm32f4xx_i2c.o
 .text.I2C_DMALastTransferCmd
                0x00000000       0x20 ..\obj\stm32f4xx_i2c.o
 .text.I2C_ReadRegister
                0x00000000       0x1c ..\obj\stm32f4xx_i2c.o
 .text.I2C_ITConfig
                0x00000000       0x18 ..\obj\stm32f4xx_i2c.o
 .text.I2C_GetLastEvent
                0x00000000       0x10 ..\obj\stm32f4xx_i2c.o
 .text.I2C_ClearFlag
                0x00000000        0xc ..\obj\stm32f4xx_i2c.o
 .text.I2C_GetITStatus
                0x00000000       0x24 ..\obj\stm32f4xx_i2c.o
 .text.I2C_ClearITPendingBit
                0x00000000        0xc ..\obj\stm32f4xx_i2c.o
 .text          0x00000000        0x0 ..\obj\misc.o
 .data          0x00000000        0x0 ..\obj\misc.o
 .bss           0x00000000        0x0 ..\obj\misc.o
 .text.NVIC_PriorityGroupConfig
                0x00000000       0x14 ..\obj\misc.o
 .text.NVIC_SetVectorTable
                0x00000000       0x18 ..\obj\misc.o
 .text.NVIC_SystemLPConfig
                0x00000000       0x24 ..\obj\misc.o
 .text.SysTick_CLKSourceConfig
                0x00000000       0x1c ..\obj\misc.o
 .text          0x00000000        0x0 ..\obj\ov7670.o
 .data          0x00000000        0x0 ..\obj\ov7670.o
 .bss           0x00000000        0x0 ..\obj\ov7670.o
 .text          0x00000000        0x0 ..\obj\heap_2.o
 .text.xPortGetFreeHeapSize
                0x00000000        0xc ..\obj\heap_2.o
 .text.vPortInitialiseBlocks
                0x00000000        0x4 ..\obj\heap_2.o
 .text          0x00000000        0x0 ..\obj\stm32f4xx_tim.o
 .data          0x00000000        0x0 ..\obj\stm32f4xx_tim.o
 .bss           0x00000000        0x0 ..\obj\stm32f4xx_tim.o
 .text.TI1_Config
                0x00000000       0x44 ..\obj\stm32f4xx_tim.o
 .text.TI2_Config
                0x00000000       0x4c ..\obj\stm32f4xx_tim.o
 .text.TIM_DeInit
                0x00000000      0x20c ..\obj\stm32f4xx_tim.o
 .text.TIM_TimeBaseInit
                0x00000000       0xac ..\obj\stm32f4xx_tim.o
 .text.TIM_TimeBaseStructInit
                0x00000000       0x14 ..\obj\stm32f4xx_tim.o
 .text.TIM_PrescalerConfig
                0x00000000        0x8 ..\obj\stm32f4xx_tim.o
 .text.TIM_CounterModeConfig
                0x00000000       0x14 ..\obj\stm32f4xx_tim.o
 .text.TIM_SetCounter
                0x00000000        0x4 ..\obj\stm32f4xx_tim.o
 .text.TIM_SetAutoreload
                0x00000000        0x4 ..\obj\stm32f4xx_tim.o
 .text.TIM_GetCounter
                0x00000000        0x4 ..\obj\stm32f4xx_tim.o
 .text.TIM_GetPrescaler
                0x00000000        0x8 ..\obj\stm32f4xx_tim.o
 .text.TIM_UpdateDisableConfig
                0x00000000       0x20 ..\obj\stm32f4xx_tim.o
 .text.TIM_UpdateRequestConfig
                0x00000000       0x20 ..\obj\stm32f4xx_tim.o
 .text.TIM_ARRPreloadConfig
                0x00000000       0x20 ..\obj\stm32f4xx_tim.o
 .text.TIM_SelectOnePulseMode
                0x00000000       0x1c ..\obj\stm32f4xx_tim.o
 .text.TIM_SetClockDivision
                0x00000000       0x1c ..\obj\stm32f4xx_tim.o
 .text.TIM_Cmd  0x00000000       0x20 ..\obj\stm32f4xx_tim.o
 .text.TIM_OC1Init
                0x00000000       0x8c ..\obj\stm32f4xx_tim.o
 .text.TIM_OC2Init
                0x00000000       0x9c ..\obj\stm32f4xx_tim.o
 .text.TIM_OC3Init
                0x00000000       0x98 ..\obj\stm32f4xx_tim.o
 .text.TIM_OC4Init
                0x00000000       0x7c ..\obj\stm32f4xx_tim.o
 .text.TIM_OCStructInit
                0x00000000       0x18 ..\obj\stm32f4xx_tim.o
 .text.TIM_SelectOCxM
                0x00000000       0x58 ..\obj\stm32f4xx_tim.o
 .text.TIM_SetCompare1
                0x00000000        0x4 ..\obj\stm32f4xx_tim.o
 .text.TIM_SetCompare2
                0x00000000        0x4 ..\obj\stm32f4xx_tim.o
 .text.TIM_SetCompare3
                0x00000000        0x4 ..\obj\stm32f4xx_tim.o
 .text.TIM_SetCompare4
                0x00000000        0x4 ..\obj\stm32f4xx_tim.o
 .text.TIM_ForcedOC1Config
                0x00000000       0x14 ..\obj\stm32f4xx_tim.o
 .text.TIM_ForcedOC2Config
                0x00000000       0x18 ..\obj\stm32f4xx_tim.o
 .text.TIM_ForcedOC3Config
                0x00000000       0x14 ..\obj\stm32f4xx_tim.o
 .text.TIM_ForcedOC4Config
                0x00000000       0x18 ..\obj\stm32f4xx_tim.o
 .text.TIM_OC1PreloadConfig
                0x00000000       0x14 ..\obj\stm32f4xx_tim.o
 .text.TIM_OC2PreloadConfig
                0x00000000       0x18 ..\obj\stm32f4xx_tim.o
 .text.TIM_OC3PreloadConfig
                0x00000000       0x14 ..\obj\stm32f4xx_tim.o
 .text.TIM_OC4PreloadConfig
                0x00000000       0x18 ..\obj\stm32f4xx_tim.o
 .text.TIM_OC1FastConfig
                0x00000000       0x14 ..\obj\stm32f4xx_tim.o
 .text.TIM_OC2FastConfig
                0x00000000       0x18 ..\obj\stm32f4xx_tim.o
 .text.TIM_OC3FastConfig
                0x00000000       0x14 ..\obj\stm32f4xx_tim.o
 .text.TIM_OC4FastConfig
                0x00000000       0x18 ..\obj\stm32f4xx_tim.o
 .text.TIM_ClearOC1Ref
                0x00000000       0x14 ..\obj\stm32f4xx_tim.o
 .text.TIM_ClearOC2Ref
                0x00000000       0x14 ..\obj\stm32f4xx_tim.o
 .text.TIM_ClearOC3Ref
                0x00000000       0x14 ..\obj\stm32f4xx_tim.o
 .text.TIM_ClearOC4Ref
                0x00000000       0x14 ..\obj\stm32f4xx_tim.o
 .text.TIM_OC1PolarityConfig
                0x00000000       0x14 ..\obj\stm32f4xx_tim.o
 .text.TIM_OC1NPolarityConfig
                0x00000000       0x14 ..\obj\stm32f4xx_tim.o
 .text.TIM_OC2PolarityConfig
                0x00000000       0x18 ..\obj\stm32f4xx_tim.o
 .text.TIM_OC2NPolarityConfig
                0x00000000       0x18 ..\obj\stm32f4xx_tim.o
 .text.TIM_OC3PolarityConfig
                0x00000000       0x18 ..\obj\stm32f4xx_tim.o
 .text.TIM_OC3NPolarityConfig
                0x00000000       0x18 ..\obj\stm32f4xx_tim.o
 .text.TIM_OC4PolarityConfig
                0x00000000       0x18 ..\obj\stm32f4xx_tim.o
 .text.TIM_CCxCmd
                0x00000000       0x24 ..\obj\stm32f4xx_tim.o
 .text.TIM_CCxNCmd
                0x00000000       0x24 ..\obj\stm32f4xx_tim.o
 .text.TIM_ICStructInit
                0x00000000       0x14 ..\obj\stm32f4xx_tim.o
 .text.TIM_GetCapture1
                0x00000000        0x4 ..\obj\stm32f4xx_tim.o
 .text.TIM_GetCapture2
                0x00000000        0x4 ..\obj\stm32f4xx_tim.o
 .text.TIM_GetCapture3
                0x00000000        0x4 ..\obj\stm32f4xx_tim.o
 .text.TIM_GetCapture4
                0x00000000        0x4 ..\obj\stm32f4xx_tim.o
 .text.TIM_SetIC1Prescaler
                0x00000000       0x1c ..\obj\stm32f4xx_tim.o
 .text.TIM_SetIC2Prescaler
                0x00000000       0x20 ..\obj\stm32f4xx_tim.o
 .text.TIM_PWMIConfig
                0x00000000       0x68 ..\obj\stm32f4xx_tim.o
 .text.TIM_SetIC3Prescaler
                0x00000000       0x1c ..\obj\stm32f4xx_tim.o
 .text.TIM_SetIC4Prescaler
                0x00000000       0x20 ..\obj\stm32f4xx_tim.o
 .text.TIM_ICInit
                0x00000000       0xe0 ..\obj\stm32f4xx_tim.o
 .text.TIM_BDTRConfig
                0x00000000       0x24 ..\obj\stm32f4xx_tim.o
 .text.TIM_BDTRStructInit
                0x00000000       0x14 ..\obj\stm32f4xx_tim.o
 .text.TIM_CtrlPWMOutputs
                0x00000000       0x28 ..\obj\stm32f4xx_tim.o
 .text.TIM_SelectCOM
                0x00000000       0x20 ..\obj\stm32f4xx_tim.o
 .text.TIM_CCPreloadControl
                0x00000000       0x20 ..\obj\stm32f4xx_tim.o
 .text.TIM_ITConfig
                0x00000000       0x18 ..\obj\stm32f4xx_tim.o
 .text.TIM_GenerateEvent
                0x00000000        0x4 ..\obj\stm32f4xx_tim.o
 .text.TIM_GetFlagStatus
                0x00000000        0xc ..\obj\stm32f4xx_tim.o
 .text.TIM_ClearFlag
                0x00000000        0xc ..\obj\stm32f4xx_tim.o
 .text.TIM_GetITStatus
                0x00000000       0x1c ..\obj\stm32f4xx_tim.o
 .text.TIM_ClearITPendingBit
                0x00000000        0xc ..\obj\stm32f4xx_tim.o
 .text.TIM_DMAConfig
                0x00000000        0x8 ..\obj\stm32f4xx_tim.o
 .text.TIM_DMACmd
                0x00000000       0x18 ..\obj\stm32f4xx_tim.o
 .text.TIM_SelectCCDMA
                0x00000000       0x20 ..\obj\stm32f4xx_tim.o
 .text.TIM_InternalClockConfig
                0x00000000       0x14 ..\obj\stm32f4xx_tim.o
 .text.TIM_SelectInputTrigger
                0x00000000       0x14 ..\obj\stm32f4xx_tim.o
 .text.TIM_TIxExternalClockConfig
                0x00000000       0x34 ..\obj\stm32f4xx_tim.o
 .text.TIM_ITRxExternalClockConfig
                0x00000000       0x14 ..\obj\stm32f4xx_tim.o
 .text.TIM_SelectOutputTrigger
                0x00000000       0x1c ..\obj\stm32f4xx_tim.o
 .text.TIM_SelectSlaveMode
                0x00000000       0x1c ..\obj\stm32f4xx_tim.o
 .text.TIM_SelectMasterSlaveMode
                0x00000000       0x1c ..\obj\stm32f4xx_tim.o
 .text.TIM_ETRConfig
                0x00000000       0x18 ..\obj\stm32f4xx_tim.o
 .text.TIM_ETRClockMode2Config
                0x00000000       0x14 ..\obj\stm32f4xx_tim.o
 .text.TIM_ETRClockMode1Config
                0x00000000       0x20 ..\obj\stm32f4xx_tim.o
 .text.TIM_EncoderInterfaceConfig
                0x00000000       0x4c ..\obj\stm32f4xx_tim.o
 .text.TIM_SelectHallSensor
                0x00000000       0x20 ..\obj\stm32f4xx_tim.o
 .text.TIM_RemapConfig
                0x00000000        0x8 ..\obj\stm32f4xx_tim.o
 .text          0x00000000        0x0 ..\..\..\..\..\..\..\dev\gcc-arm\arm-none-eabi\lib\armv7e-m\fpu\libg.a(lib_a-memcpy.o)
 .data          0x00000000        0x0 ..\..\..\..\..\..\..\dev\gcc-arm\arm-none-eabi\lib\armv7e-m\fpu\libg.a(lib_a-memcpy.o)
 .bss           0x00000000        0x0 ..\..\..\..\..\..\..\dev\gcc-arm\arm-none-eabi\lib\armv7e-m\fpu\libg.a(lib_a-memcpy.o)
 .text          0x00000000        0x0 ..\..\..\..\..\..\..\dev\gcc-arm\arm-none-eabi\lib\armv7e-m\fpu\libg.a(lib_a-memset.o)
 .data          0x00000000        0x0 ..\..\..\..\..\..\..\dev\gcc-arm\arm-none-eabi\lib\armv7e-m\fpu\libg.a(lib_a-memset.o)
 .bss           0x00000000        0x0 ..\..\..\..\..\..\..\dev\gcc-arm\arm-none-eabi\lib\armv7e-m\fpu\libg.a(lib_a-memset.o)
 .text          0x00000000        0x0 ..\..\..\..\..\..\..\dev\gcc-arm\arm-none-eabi\lib\armv7e-m\fpu\libg.a(lib_a-strncpy.o)
 .data          0x00000000        0x0 ..\..\..\..\..\..\..\dev\gcc-arm\arm-none-eabi\lib\armv7e-m\fpu\libg.a(lib_a-strncpy.o)
 .bss           0x00000000        0x0 ..\..\..\..\..\..\..\dev\gcc-arm\arm-none-eabi\lib\armv7e-m\fpu\libg.a(lib_a-strncpy.o)

Memory Configuration

Name             Origin             Length             Attributes
rom              0x08000000         0x00100000         xr
ram              0x20000000         0x00020000         xrw
ram1             0x10000000         0x00010000         xrw
*default*        0x00000000         0xffffffff

Linker script and memory map

                0x20020000                _eram = 0x20020000

.text           0x08000000     0x2eb8
 *(.isr_vector .isr_vector.*)
 .isr_vector    0x08000000      0x188 ..\obj\startup_stm32f4xx.o
                0x08000000                g_pfnVectors
 *(.text .text.* .gnu.linkonce.t.*)
 .text.I2CInit  0x08000188       0xb4 ..\obj\i2c.o
                0x08000188                I2CInit
 .text.I2C_start
                0x0800023c       0x88 ..\obj\i2c.o
                0x0800023c                I2C_start
 .text.I2C_write
                0x080002c4       0x24 ..\obj\i2c.o
                0x080002c4                I2C_write
 .text.I2C_read_nack
                0x080002e8       0x2c ..\obj\i2c.o
                0x080002e8                I2C_read_nack
 .text.I2C_stop
                0x08000314        0xc ..\obj\i2c.o
                0x08000314                I2C_stop
 .text.USART_Init
                0x08000320      0x108 ..\obj\stm32f4xx_usart.o
                0x08000320                USART_Init
 .text.USART_Cmd
                0x08000428       0x20 ..\obj\stm32f4xx_usart.o
                0x08000428                USART_Cmd
 .text.USART_OverSampling8Cmd
                0x08000448       0x20 ..\obj\stm32f4xx_usart.o
                0x08000448                USART_OverSampling8Cmd
 .text.USART_SendData
                0x08000468        0xc ..\obj\stm32f4xx_usart.o
                0x08000468                USART_SendData
 .text.USART_ReceiveData
                0x08000474        0xc ..\obj\stm32f4xx_usart.o
                0x08000474                USART_ReceiveData
 .text.USART_GetFlagStatus
                0x08000480        0xc ..\obj\stm32f4xx_usart.o
                0x08000480                USART_GetFlagStatus
 .text.Default_Reset_Handler
                0x0800048c       0x68 ..\obj\startup_stm32f4xx.o
                0x0800048c                Default_Reset_Handler
                0x0800048c                Reset_Handler
 .text.Default_Handler
                0x080004f4        0x4 ..\obj\startup_stm32f4xx.o
                0x080004f4                RTC_Alarm_IRQHandler
                0x080004f4                HASH_RNG_IRQHandler
                0x080004f4                EXTI2_IRQHandler
                0x080004f4                TIM8_CC_IRQHandler
                0x080004f4                DebugMon_Handler
                0x080004f4                TIM1_CC_IRQHandler
                0x080004f4                DMA2_Stream5_IRQHandler
                0x080004f4                HardFault_Handler
                0x080004f4                DMA1_Stream5_IRQHandler
                0x080004f4                PVD_IRQHandler
                0x080004f4                SDIO_IRQHandler
                0x080004f4                TAMP_STAMP_IRQHandler
                0x080004f4                NMI_Handler
                0x080004f4                CAN2_RX1_IRQHandler
                0x080004f4                EXTI3_IRQHandler
                0x080004f4                TIM8_TRG_COM_TIM14_IRQHandler
                0x080004f4                TIM1_UP_TIM10_IRQHandler
                0x080004f4                TIM8_UP_TIM13_IRQHandler
                0x080004f4                I2C3_ER_IRQHandler
                0x080004f4                EXTI0_IRQHandler
                0x080004f4                I2C2_EV_IRQHandler
                0x080004f4                DMA1_Stream2_IRQHandler
                0x080004f4                CAN1_RX0_IRQHandler
                0x080004f4                FPU_IRQHandler
                0x080004f4                OTG_HS_WKUP_IRQHandler
                0x080004f4                UsageFault_Handler
                0x080004f4                CAN2_SCE_IRQHandler
                0x080004f4                DMA2_Stream2_IRQHandler
                0x080004f4                SPI1_IRQHandler
                0x080004f4                TIM6_DAC_IRQHandler
                0x080004f4                TIM1_BRK_TIM9_IRQHandler
                0x080004f4                CAN2_RX0_IRQHandler
                0x080004f4                DMA2_Stream3_IRQHandler
                0x080004f4                USART6_IRQHandler
                0x080004f4                USART3_IRQHandler
                0x080004f4                CRYP_IRQHandler
                0x080004f4                CAN1_RX1_IRQHandler
                0x080004f4                UART5_IRQHandler
                0x080004f4                DMA2_Stream0_IRQHandler
                0x080004f4                TIM4_IRQHandler
                0x080004f4                I2C1_EV_IRQHandler
                0x080004f4                DMA1_Stream6_IRQHandler
                0x080004f4                DMA1_Stream1_IRQHandler
                0x080004f4                UART4_IRQHandler
                0x080004f4                TIM3_IRQHandler
                0x080004f4                RCC_IRQHandler
                0x080004f4                TIM8_BRK_TIM12_IRQHandler
                0x080004f4                EXTI15_10_IRQHandler
                0x080004f4                ADC_IRQHandler
                0x080004f4                DMA1_Stream7_IRQHandler
                0x080004f4                TIM7_IRQHandler
                0x080004f4                CAN2_TX_IRQHandler
                0x080004f4                TIM5_IRQHandler
                0x080004f4                DMA2_Stream7_IRQHandler
                0x080004f4                I2C3_EV_IRQHandler
                0x080004f4                EXTI9_5_IRQHandler
                0x080004f4                RTC_WKUP_IRQHandler
                0x080004f4                ETH_WKUP_IRQHandler
                0x080004f4                SPI2_IRQHandler
                0x080004f4                OTG_HS_EP1_IN_IRQHandler
                0x080004f4                MemManage_Handler
                0x080004f4                DMA1_Stream0_IRQHandler
                0x080004f4                CAN1_TX_IRQHandler
                0x080004f4                EXTI4_IRQHandler
                0x080004f4                FSMC_IRQHandler
                0x080004f4                ETH_IRQHandler
                0x080004f4                OTG_HS_EP1_OUT_IRQHandler
                0x080004f4                WWDG_IRQHandler
                0x080004f4                TIM2_IRQHandler
                0x080004f4                OTG_FS_WKUP_IRQHandler
                0x080004f4                TIM1_TRG_COM_TIM11_IRQHandler
                0x080004f4                OTG_HS_IRQHandler
                0x080004f4                EXTI1_IRQHandler
                0x080004f4                USART2_IRQHandler
                0x080004f4                I2C2_ER_IRQHandler
                0x080004f4                DMA2_Stream1_IRQHandler
                0x080004f4                CAN1_SCE_IRQHandler
                0x080004f4                FLASH_IRQHandler
                0x080004f4                DMA2_Stream4_IRQHandler
                0x080004f4                BusFault_Handler
                0x080004f4                USART1_IRQHandler
                0x080004f4                OTG_FS_IRQHandler
                0x080004f4                SPI3_IRQHandler
                0x080004f4                DMA1_Stream4_IRQHandler
                0x080004f4                I2C1_ER_IRQHandler
                0x080004f4                DMA2_Stream6_IRQHandler
                0x080004f4                DMA1_Stream3_IRQHandler
 .text.vLED     0x080004f8       0xa0 ..\obj\main.o
                0x080004f8                vLED
 .text.usart_init
                0x08000598       0xc8 ..\obj\main.o
                0x08000598                usart_init
 .text.usartSendWord
                0x08000660       0x64 ..\obj\main.o
                0x08000660                usartSendWord
 .text.vGetPicture
                0x080006c4       0x7c ..\obj\main.o
                0x080006c4                vGetPicture
 .text.delay    0x08000740       0x10 ..\obj\main.o
                0x08000740                delay
 .text.packet_parser
                0x08000750       0x7c ..\obj\main.o
                0x08000750                packet_parser
 .text.vScanUsart
                0x080007cc      0x114 ..\obj\main.o
                0x080007cc                vScanUsart
 .text.main     0x080008e0       0xe0 ..\obj\main.o
                0x080008e0                main
 .text.DCMI_IRQHandler
                0x080009c0       0x3c ..\obj\main.o
                0x080009c0                DCMI_IRQHandler
 .text.RCC_MCO2Config
                0x080009fc       0x18 ..\obj\stm32f4xx_rcc.o
                0x080009fc                RCC_MCO2Config
 .text.RCC_GetClocksFreq
                0x08000a14       0xd8 ..\obj\stm32f4xx_rcc.o
                0x08000a14                RCC_GetClocksFreq
 .text.RCC_AHB1PeriphClockCmd
                0x08000aec       0x24 ..\obj\stm32f4xx_rcc.o
                0x08000aec                RCC_AHB1PeriphClockCmd
 .text.RCC_AHB2PeriphClockCmd
                0x08000b10       0x24 ..\obj\stm32f4xx_rcc.o
                0x08000b10                RCC_AHB2PeriphClockCmd
 .text.RCC_APB1PeriphClockCmd
                0x08000b34       0x24 ..\obj\stm32f4xx_rcc.o
                0x08000b34                RCC_APB1PeriphClockCmd
 .text.DCMI_DeInit
                0x08000b58       0x20 ..\obj\stm32f4xx_dcmi.o
                0x08000b58                DCMI_DeInit
 .text.DCMI_Init
                0x08000b78       0x44 ..\obj\stm32f4xx_dcmi.o
                0x08000b78                DCMI_Init
 .text.DCMI_Cmd
                0x08000bbc       0x28 ..\obj\stm32f4xx_dcmi.o
                0x08000bbc                DCMI_Cmd
 .text.DCMI_CaptureCmd
                0x08000be4       0x28 ..\obj\stm32f4xx_dcmi.o
                0x08000be4                DCMI_CaptureCmd
 .text.DCMI_ITConfig
                0x08000c0c       0x28 ..\obj\stm32f4xx_dcmi.o
                0x08000c0c                DCMI_ITConfig
 .text.DCMI_GetITStatus
                0x08000c34       0x14 ..\obj\stm32f4xx_dcmi.o
                0x08000c34                DCMI_GetITStatus
 .text.DCMI_ClearITPendingBit
                0x08000c48        0xc ..\obj\stm32f4xx_dcmi.o
                0x08000c48                DCMI_ClearITPendingBit
 .text.prvAddCurrentTaskToDelayedList
                0x08000c54       0x5c ..\obj\tasks.o
 .text.prvIdleTask
                0x08000cb0       0x14 ..\obj\tasks.o
 .text.xTaskGenericCreate
                0x08000cc4      0x1f0 ..\obj\tasks.o
                0x08000cc4                xTaskGenericCreate
 .text.vTaskStartScheduler
                0x08000eb4       0x50 ..\obj\tasks.o
                0x08000eb4                vTaskStartScheduler
 .text.vTaskSuspendAll
                0x08000f04       0x18 ..\obj\tasks.o
                0x08000f04                vTaskSuspendAll
 .text.vTaskIncrementTick
                0x08000f1c      0x13c ..\obj\tasks.o
                0x08000f1c                vTaskIncrementTick
 .text.xTaskResumeAll
                0x08001058      0x114 ..\obj\tasks.o
                0x08001058                xTaskResumeAll
 .text.vTaskDelay
                0x0800116c       0x34 ..\obj\tasks.o
                0x0800116c                vTaskDelay
 .text.vTaskSwitchContext
                0x080011a0       0xa0 ..\obj\tasks.o
                0x080011a0                vTaskSwitchContext
 .text.vTaskPlaceOnEventList
                0x08001240       0x2c ..\obj\tasks.o
                0x08001240                vTaskPlaceOnEventList
 .text.xTaskRemoveFromEventList
                0x0800126c       0x80 ..\obj\tasks.o
                0x0800126c                xTaskRemoveFromEventList
 .text.vTaskSetTimeOutState
                0x080012ec       0x14 ..\obj\tasks.o
                0x080012ec                vTaskSetTimeOutState
 .text.xTaskCheckForTimeOut
                0x08001300       0x70 ..\obj\tasks.o
                0x08001300                xTaskCheckForTimeOut
 .text.vTaskMissedYield
                0x08001370       0x14 ..\obj\tasks.o
                0x08001370                vTaskMissedYield
 .text.xTaskGetCurrentTaskHandle
                0x08001384        0xc ..\obj\tasks.o
                0x08001384                xTaskGetCurrentTaskHandle
 .text.vTaskPriorityInherit
                0x08001390       0x90 ..\obj\tasks.o
                0x08001390                vTaskPriorityInherit
 .text.vTaskPriorityDisinherit
                0x08001420       0x54 ..\obj\tasks.o
                0x08001420                vTaskPriorityDisinherit
 .text.GPIO_Init
                0x08001474       0xbc ..\obj\stm32f4xx_gpio.o
                0x08001474                GPIO_Init
 .text.GPIO_SetBits
                0x08001530        0x4 ..\obj\stm32f4xx_gpio.o
                0x08001530                GPIO_SetBits
 .text.GPIO_ResetBits
                0x08001534        0x4 ..\obj\stm32f4xx_gpio.o
                0x08001534                GPIO_ResetBits
 .text.GPIO_PinAFConfig
                0x08001538       0x38 ..\obj\stm32f4xx_gpio.o
                0x08001538                GPIO_PinAFConfig
 .text.vListInitialise
                0x08001570       0x18 ..\obj\list.o
                0x08001570                vListInitialise
 .text.vListInitialiseItem
                0x08001588        0x8 ..\obj\list.o
                0x08001588                vListInitialiseItem
 .text.vListInsertEnd
                0x08001590       0x20 ..\obj\list.o
                0x08001590                vListInsertEnd
 .text.vListInsert
                0x080015b0       0x3c ..\obj\list.o
                0x080015b0                vListInsert
 .text.uxListRemove
                0x080015ec       0x2c ..\obj\list.o
                0x080015ec                uxListRemove
 .text.SystemInit
                0x08001618      0x138 ..\obj\system_stm32f4xx.o
                0x08001618                SystemInit
 .text.DMA_DeInit
                0x08001750      0x1f4 ..\obj\stm32f4xx_dma.o
                0x08001750                DMA_DeInit
 .text.DMA_Init
                0x08001944       0x58 ..\obj\stm32f4xx_dma.o
                0x08001944                DMA_Init
 .text.DMA_Cmd  0x0800199c       0x18 ..\obj\stm32f4xx_dma.o
                0x0800199c                DMA_Cmd
 .text.DMA_GetCmdStatus
                0x080019b4        0x8 ..\obj\stm32f4xx_dma.o
                0x080019b4                DMA_GetCmdStatus
 .text.prvCopyDataFromQueue
                0x080019bc       0x24 ..\obj\queue.o
 .text.prvUnlockQueue
                0x080019e0       0x84 ..\obj\queue.o
 .text.prvCopyDataToQueue
                0x08001a64       0x64 ..\obj\queue.o
 .text.xQueueGenericReset
                0x08001ac8       0x64 ..\obj\queue.o
                0x08001ac8                xQueueGenericReset
 .text.xQueueGenericCreate
                0x08001b2c       0x50 ..\obj\queue.o
                0x08001b2c                xQueueGenericCreate
 .text.xQueueGenericSend
                0x08001b7c       0xe4 ..\obj\queue.o
                0x08001b7c                xQueueGenericSend
 .text.xQueueGenericSendFromISR
                0x08001c60       0x7c ..\obj\queue.o
                0x08001c60                xQueueGenericSendFromISR
 .text.xQueueGenericReceive
                0x08001cdc      0x118 ..\obj\queue.o
                0x08001cdc                xQueueGenericReceive
 .text.prvPortStartFirstTask
                0x08001df4       0x14 ..\obj\port.o
 .text.vPortEnableVFP
                0x08001e08       0x14 ..\obj\port.o
 .text.pxPortInitialiseStack
                0x08001e1c       0x28 ..\obj\port.o
                0x08001e1c                pxPortInitialiseStack
 .text.SVC_Handler
                0x08001e44       0x1c ..\obj\port.o
                0x08001e44                SVC_Handler
 .text.vPortYield
                0x08001e60       0x18 ..\obj\port.o
                0x08001e60                vPortYield
 .text.ulPortSetInterruptMask
                0x08001e78       0x14 ..\obj\port.o
                0x08001e78                ulPortSetInterruptMask
 .text.vPortEnterCritical
                0x08001e8c       0x20 ..\obj\port.o
                0x08001e8c                vPortEnterCritical
 .text.vPortClearInterruptMask
                0x08001eac        0x8 ..\obj\port.o
                0x08001eac                vPortClearInterruptMask
 .text.vPortExitCritical
                0x08001eb4       0x20 ..\obj\port.o
                0x08001eb4                vPortExitCritical
 .text.PendSV_Handler
                0x08001ed4       0x50 ..\obj\port.o
                0x08001ed4                PendSV_Handler
 .text.SysTick_Handler
                0x08001f24       0x24 ..\obj\port.o
                0x08001f24                SysTick_Handler
 .text.vPortSetupTimerInterrupt
                0x08001f48       0x24 ..\obj\port.o
                0x08001f48                vPortSetupTimerInterrupt
 .text.xPortStartScheduler
                0x08001f6c       0x48 ..\obj\port.o
                0x08001f6c                xPortStartScheduler
 .text.I2C_Init
                0x08001fb4      0x100 ..\obj\stm32f4xx_i2c.o
                0x08001fb4                I2C_Init
 .text.I2C_Cmd  0x080020b4       0x20 ..\obj\stm32f4xx_i2c.o
                0x080020b4                I2C_Cmd
 .text.I2C_GenerateSTART
                0x080020d4       0x20 ..\obj\stm32f4xx_i2c.o
                0x080020d4                I2C_GenerateSTART
 .text.I2C_GenerateSTOP
                0x080020f4       0x20 ..\obj\stm32f4xx_i2c.o
                0x080020f4                I2C_GenerateSTOP
 .text.I2C_Send7bitAddress
                0x08002114       0x10 ..\obj\stm32f4xx_i2c.o
                0x08002114                I2C_Send7bitAddress
 .text.I2C_AcknowledgeConfig
                0x08002124       0x20 ..\obj\stm32f4xx_i2c.o
                0x08002124                I2C_AcknowledgeConfig
 .text.I2C_SendData
                0x08002144        0x4 ..\obj\stm32f4xx_i2c.o
                0x08002144                I2C_SendData
 .text.I2C_ReceiveData
                0x08002148        0x8 ..\obj\stm32f4xx_i2c.o
                0x08002148                I2C_ReceiveData
 .text.I2C_CheckEvent
                0x08002150       0x1c ..\obj\stm32f4xx_i2c.o
                0x08002150                I2C_CheckEvent
 .text.I2C_GetFlagStatus
                0x0800216c       0x40 ..\obj\stm32f4xx_i2c.o
                0x0800216c                I2C_GetFlagStatus
 .text.NVIC_Init
                0x080021ac       0x88 ..\obj\misc.o
                0x080021ac                NVIC_Init
 .text.delayx   0x08002234       0x10 ..\obj\ov7670.o
                0x08002234                delayx
 .text.ov7670_get
                0x08002244       0x58 ..\obj\ov7670.o
                0x08002244                ov7670_get
 .text.ov7670_set
                0x0800229c       0x40 ..\obj\ov7670.o
                0x0800229c                ov7670_set
 .text.ov7670_init
                0x080022dc      0x5b4 ..\obj\ov7670.o
                0x080022dc                ov7670_init
 .text.DMA_init
                0x08002890       0xc8 ..\obj\ov7670.o
                0x08002890                DMA_init
 .text.DCMI_init
                0x08002958      0x188 ..\obj\ov7670.o
                0x08002958                DCMI_init
 .text.pvPortMalloc
                0x08002ae0       0xec ..\obj\heap_2.o
                0x08002ae0                pvPortMalloc
 .text.vPortFree
                0x08002bcc       0x44 ..\obj\heap_2.o
                0x08002bcc                vPortFree
 .text.memcpy   0x08002c10       0x84 ..\..\..\..\..\..\..\dev\gcc-arm\arm-none-eabi\lib\armv7e-m\fpu\libg.a(lib_a-memcpy.o)
                0x08002c10                memcpy
 .text.memset   0x08002c94       0x90 ..\..\..\..\..\..\..\dev\gcc-arm\arm-none-eabi\lib\armv7e-m\fpu\libg.a(lib_a-memset.o)
                0x08002c94                memset
 .text.strncpy  0x08002d24       0x68 ..\..\..\..\..\..\..\dev\gcc-arm\arm-none-eabi\lib\armv7e-m\fpu\libg.a(lib_a-strncpy.o)
                0x08002d24                strncpy
 *(.glue_7t)
 .glue_7t       0x00000000        0x0 linker stubs
 *(.glue_7)
 .glue_7        0x00000000        0x0 linker stubs
 *(.rodata .rodata* .gnu.linkonce.r.*)
 .rodata        0x08002d8c      0x104 ..\obj\main.o
                0x08002d8c                crc8Table
                0x08002e8c                TFESC
                0x08002e8d                TFEND
                0x08002e8e                FESC
                0x08002e8f                FEND
 .rodata.str1.4
                0x08002e90       0x1f ..\obj\main.o
                                 0x20 (size before relaxing)
 *fill*         0x08002eaf        0x1 00
 .rodata.str1.4
                0x08002eb0        0x8 ..\obj\tasks.o

.vfp11_veneer   0x08002eb8        0x0
 .vfp11_veneer  0x00000000        0x0 linker stubs

.v4_bx          0x08002eb8        0x0
 .v4_bx         0x00000000        0x0 linker stubs

.ARM.extab
 *(.ARM.extab* .gnu.linkonce.armextab.*)
                0x08002eb8                __exidx_start = .

.ARM.exidx
 *(.ARM.exidx* .gnu.linkonce.armexidx.*)
                0x08002eb8                __exidx_end = .
                0x08002eb8                . = ALIGN (0x4)
                0x08002eb8                _etext = .
                0x08002eb8                _sidata = .

.data           0x20000000       0x20 load address 0x08002eb8
                0x20000000                _sdata = .
 *(.data .data.*)
 .data          0x20000000        0x4 ..\obj\main.o
                0x20000000                speed
 .data          0x20000004       0x10 ..\obj\stm32f4xx_rcc.o
 .data          0x20000014        0x4 ..\obj\tasks.o
 .data          0x20000018        0x4 ..\obj\port.o
 .data          0x2000001c        0x4 ..\obj\heap_2.o
                0x20000020                . = ALIGN (0x4)
                0x20000020                _edata = .

.bss            0x20000020     0xd4c8 load address 0x08002ed8
                0x20000020                _sbss = .
 *(.bss .bss.*)
 .bss           0x20000020      0x104 ..\obj\main.o
                0x20000020                xSemPictureReady
 .bss           0x20000124      0x1b0 ..\obj\tasks.o
                0x20000124                pxCurrentTCB
 .bss           0x200002d4      0xc14 ..\obj\heap_2.o
 *(COMMON)
 COMMON         0x20000ee8     0xc600 ..\obj\main.o
                0x20000ee8                RAM_Buffer
                0x2000d4e8                . = ALIGN (0x4)
                0x2000d4e8                _ebss = .

.co_stack       0x2000d4e8      0x800 load address 0x080103a0
                0x2000d4e8                . = ALIGN (0x8)
 *(.co_stack .co_stack.*)
 .co_stack      0x2000d4e8      0x800 ..\obj\startup_stm32f4xx.o
                0x2000d4e8                pulStack
                0x2000dce8                . = ALIGN (0x4)
                0x2000dce8                _end = .
LOAD ..\obj\i2c.o
LOAD ..\obj\stm32f4xx_usart.o
LOAD ..\obj\startup_stm32f4xx.o
LOAD ..\obj\main.o
LOAD ..\obj\stm32f4xx_rcc.o
LOAD ..\obj\timers.o
LOAD ..\obj\printf.o
LOAD ..\obj\stm32f4xx_dcmi.o
LOAD ..\obj\tasks.o
LOAD ..\obj\stm32f4xx_gpio.o
LOAD ..\obj\list.o
LOAD ..\obj\system_stm32f4xx.o
LOAD ..\obj\syscalls.o
LOAD ..\obj\stm32f4xx_dma.o
LOAD ..\obj\queue.o
LOAD ..\obj\port.o
LOAD ..\obj\croutine.o
LOAD ..\obj\stm32f4xx_i2c.o
LOAD ..\obj\misc.o
LOAD ..\obj\ov7670.o
LOAD ..\obj\heap_2.o
LOAD ..\obj\stm32f4xx_tim.o
LOAD ..\..\..\..\..\..\..\dev\gcc-arm\arm-none-eabi\lib\armv7e-m\fpu\libm.a
START GROUP
LOAD e:/dev/gcc-arm/bin/../lib/gcc/arm-none-eabi/4.6.2/armv7e-m\libgcc.a
LOAD ..\..\..\..\..\..\..\dev\gcc-arm\arm-none-eabi\lib\armv7e-m\fpu\libg.a
LOAD ..\..\..\..\..\..\..\dev\gcc-arm\arm-none-eabi\lib\armv7e-m\fpu\libc.a
END GROUP
OUTPUT(ov7670.elf elf32-littlearm)

.debug_info     0x00000000     0xb28f
 .debug_info    0x00000000      0x575 ..\obj\i2c.o
 .debug_info    0x00000575      0xa36 ..\obj\stm32f4xx_usart.o
 .debug_info    0x00000fab      0x144 ..\obj\startup_stm32f4xx.o
 .debug_info    0x000010ef      0xcdc ..\obj\main.o
 .debug_info    0x00001dcb      0xd0d ..\obj\stm32f4xx_rcc.o
 .debug_info    0x00002ad8       0x4c ..\obj\timers.o
 .debug_info    0x00002b24     0x10dd ..\obj\printf.o
 .debug_info    0x00003c01      0x58f ..\obj\stm32f4xx_dcmi.o
 .debug_info    0x00004190      0xabd ..\obj\tasks.o
 .debug_info    0x00004c4d      0x62b ..\obj\stm32f4xx_gpio.o
 .debug_info    0x00005278      0x2a5 ..\obj\list.o
 .debug_info    0x0000551d      0x641 ..\obj\system_stm32f4xx.o
 .debug_info    0x00005b5e      0x43a ..\obj\syscalls.o
 .debug_info    0x00005f98      0x78d ..\obj\stm32f4xx_dma.o
 .debug_info    0x00006725      0x884 ..\obj\queue.o
 .debug_info    0x00006fa9      0x21b ..\obj\port.o
 .debug_info    0x000071c4      0x50d ..\obj\croutine.o
 .debug_info    0x000076d1      0xb69 ..\obj\stm32f4xx_i2c.o
 .debug_info    0x0000823a      0x596 ..\obj\misc.o
 .debug_info    0x000087d0      0x9c1 ..\obj\ov7670.o
 .debug_info    0x00009191      0x2c3 ..\obj\heap_2.o
 .debug_info    0x00009454     0x1e3b ..\obj\stm32f4xx_tim.o

.debug_abbrev   0x00000000     0x2374
 .debug_abbrev  0x00000000      0x12f ..\obj\i2c.o
 .debug_abbrev  0x0000012f      0x1ab ..\obj\stm32f4xx_usart.o
 .debug_abbrev  0x000002da       0xb9 ..\obj\startup_stm32f4xx.o
 .debug_abbrev  0x00000393      0x2ae ..\obj\main.o
 .debug_abbrev  0x00000641      0x1f6 ..\obj\stm32f4xx_rcc.o
 .debug_abbrev  0x00000837       0x28 ..\obj\timers.o
 .debug_abbrev  0x0000085f      0x2f8 ..\obj\printf.o
 .debug_abbrev  0x00000b57      0x1af ..\obj\stm32f4xx_dcmi.o
 .debug_abbrev  0x00000d06      0x266 ..\obj\tasks.o
 .debug_abbrev  0x00000f6c      0x1ce ..\obj\stm32f4xx_gpio.o
 .debug_abbrev  0x0000113a       0xed ..\obj\list.o
 .debug_abbrev  0x00001227      0x16c ..\obj\system_stm32f4xx.o
 .debug_abbrev  0x00001393       0xed ..\obj\syscalls.o
 .debug_abbrev  0x00001480      0x19c ..\obj\stm32f4xx_dma.o
 .debug_abbrev  0x0000161c      0x1a8 ..\obj\queue.o
 .debug_abbrev  0x000017c4      0x16e ..\obj\port.o
 .debug_abbrev  0x00001932      0x1e4 ..\obj\croutine.o
 .debug_abbrev  0x00001b16      0x194 ..\obj\stm32f4xx_i2c.o
 .debug_abbrev  0x00001caa      0x14c ..\obj\misc.o
 .debug_abbrev  0x00001df6      0x1f5 ..\obj\ov7670.o
 .debug_abbrev  0x00001feb      0x184 ..\obj\heap_2.o
 .debug_abbrev  0x0000216f      0x205 ..\obj\stm32f4xx_tim.o

.debug_loc      0x00000000     0x5c5b
 .debug_loc     0x00000000      0x190 ..\obj\i2c.o
 .debug_loc     0x00000190      0x67d ..\obj\stm32f4xx_usart.o
 .debug_loc     0x0000080d       0x33 ..\obj\startup_stm32f4xx.o
 .debug_loc     0x00000840      0x58b ..\obj\main.o
 .debug_loc     0x00000dcb      0x779 ..\obj\stm32f4xx_rcc.o
 .debug_loc     0x00001544      0xa5c ..\obj\printf.o
 .debug_loc     0x00001fa0      0x17c ..\obj\stm32f4xx_dcmi.o
 .debug_loc     0x0000211c      0x6eb ..\obj\tasks.o
 .debug_loc     0x00002807      0x280 ..\obj\stm32f4xx_gpio.o
 .debug_loc     0x00002a87       0x9a ..\obj\list.o
 .debug_loc     0x00002b21      0x19a ..\obj\system_stm32f4xx.o
 .debug_loc     0x00002cbb       0x98 ..\obj\syscalls.o
 .debug_loc     0x00002d53      0x34c ..\obj\stm32f4xx_dma.o
 .debug_loc     0x0000309f      0x8d8 ..\obj\queue.o
 .debug_loc     0x00003977       0xf5 ..\obj\port.o
 .debug_loc     0x00003a6c      0x206 ..\obj\croutine.o
 .debug_loc     0x00003c72      0x651 ..\obj\stm32f4xx_i2c.o
 .debug_loc     0x000042c3      0x130 ..\obj\misc.o
 .debug_loc     0x000043f3      0x150 ..\obj\ov7670.o
 .debug_loc     0x00004543      0x24e ..\obj\heap_2.o
 .debug_loc     0x00004791     0x14ca ..\obj\stm32f4xx_tim.o

.debug_aranges  0x00000000      0xd68
 .debug_aranges
                0x00000000       0x48 ..\obj\i2c.o
 .debug_aranges
                0x00000048      0x100 ..\obj\stm32f4xx_usart.o
 .debug_aranges
                0x00000148       0x28 ..\obj\startup_stm32f4xx.o
 .debug_aranges
                0x00000170       0x78 ..\obj\main.o
 .debug_aranges
                0x000001e8      0x178 ..\obj\stm32f4xx_rcc.o
 .debug_aranges
                0x00000360       0xa0 ..\obj\printf.o
 .debug_aranges
                0x00000400       0x90 ..\obj\stm32f4xx_dcmi.o
 .debug_aranges
                0x00000490       0xc0 ..\obj\tasks.o
 .debug_aranges
                0x00000550       0x88 ..\obj\stm32f4xx_gpio.o
 .debug_aranges
                0x000005d8       0x40 ..\obj\list.o
 .debug_aranges
                0x00000618       0x28 ..\obj\system_stm32f4xx.o
 .debug_aranges
                0x00000640       0x60 ..\obj\syscalls.o
 .debug_aranges
                0x000006a0       0xb0 ..\obj\stm32f4xx_dma.o
 .debug_aranges
                0x00000750       0x90 ..\obj\queue.o
 .debug_aranges
                0x000007e0       0x88 ..\obj\port.o
 .debug_aranges
                0x00000868       0x38 ..\obj\croutine.o
 .debug_aranges
                0x000008a0      0x120 ..\obj\stm32f4xx_i2c.o
 .debug_aranges
                0x000009c0       0x40 ..\obj\misc.o
 .debug_aranges
                0x00000a00       0x48 ..\obj\ov7670.o
 .debug_aranges
                0x00000a48       0x38 ..\obj\heap_2.o
 .debug_aranges
                0x00000a80      0x2e8 ..\obj\stm32f4xx_tim.o

.debug_ranges   0x00000000      0xc78
 .debug_ranges  0x00000000       0x38 ..\obj\i2c.o
 .debug_ranges  0x00000038       0xf0 ..\obj\stm32f4xx_usart.o
 .debug_ranges  0x00000128       0x18 ..\obj\startup_stm32f4xx.o
 .debug_ranges  0x00000140       0x68 ..\obj\main.o
 .debug_ranges  0x000001a8      0x168 ..\obj\stm32f4xx_rcc.o
 .debug_ranges  0x00000310       0x90 ..\obj\printf.o
 .debug_ranges  0x000003a0       0x80 ..\obj\stm32f4xx_dcmi.o
 .debug_ranges  0x00000420      0x110 ..\obj\tasks.o
 .debug_ranges  0x00000530       0x78 ..\obj\stm32f4xx_gpio.o
 .debug_ranges  0x000005a8       0x30 ..\obj\list.o
 .debug_ranges  0x000005d8       0x18 ..\obj\system_stm32f4xx.o
 .debug_ranges  0x000005f0       0x50 ..\obj\syscalls.o
 .debug_ranges  0x00000640       0xa0 ..\obj\stm32f4xx_dma.o
 .debug_ranges  0x000006e0       0x80 ..\obj\queue.o
 .debug_ranges  0x00000760       0x78 ..\obj\port.o
 .debug_ranges  0x000007d8       0x28 ..\obj\croutine.o
 .debug_ranges  0x00000800      0x110 ..\obj\stm32f4xx_i2c.o
 .debug_ranges  0x00000910       0x30 ..\obj\misc.o
 .debug_ranges  0x00000940       0x38 ..\obj\ov7670.o
 .debug_ranges  0x00000978       0x28 ..\obj\heap_2.o
 .debug_ranges  0x000009a0      0x2d8 ..\obj\stm32f4xx_tim.o

.debug_line     0x00000000     0x40b3
 .debug_line    0x00000000      0x23b ..\obj\i2c.o
 .debug_line    0x0000023b      0x434 ..\obj\stm32f4xx_usart.o
 .debug_line    0x0000066f       0x96 ..\obj\startup_stm32f4xx.o
 .debug_line    0x00000705      0x43e ..\obj\main.o
 .debug_line    0x00000b43      0x515 ..\obj\stm32f4xx_rcc.o
 .debug_line    0x00001058       0x1d ..\obj\timers.o
 .debug_line    0x00001075      0x427 ..\obj\printf.o
 .debug_line    0x0000149c      0x2c7 ..\obj\stm32f4xx_dcmi.o
 .debug_line    0x00001763      0x3ef ..\obj\tasks.o
 .debug_line    0x00001b52      0x2d1 ..\obj\stm32f4xx_gpio.o
 .debug_line    0x00001e23      0x12e ..\obj\list.o
 .debug_line    0x00001f51      0x1ad ..\obj\system_stm32f4xx.o
 .debug_line    0x000020fe      0x169 ..\obj\syscalls.o
 .debug_line    0x00002267      0x368 ..\obj\stm32f4xx_dma.o
 .debug_line    0x000025cf      0x313 ..\obj\queue.o
 .debug_line    0x000028e2      0x1d2 ..\obj\port.o
 .debug_line    0x00002ab4      0x183 ..\obj\croutine.o
 .debug_line    0x00002c37      0x46b ..\obj\stm32f4xx_i2c.o
 .debug_line    0x000030a2      0x1e4 ..\obj\misc.o
 .debug_line    0x00003286      0x33b ..\obj\ov7670.o
 .debug_line    0x000035c1      0x143 ..\obj\heap_2.o
 .debug_line    0x00003704      0x9af ..\obj\stm32f4xx_tim.o

.debug_str      0x00000000     0x4645
 .debug_str     0x00000000      0x3e4 ..\obj\i2c.o
                                0x425 (size before relaxing)
 .debug_str     0x000003e4      0x4b1 ..\obj\stm32f4xx_usart.o
                                0x627 (size before relaxing)
 .debug_str     0x00000895       0xae ..\obj\startup_stm32f4xx.o
                                0x116 (size before relaxing)
 .debug_str     0x00000943      0x407 ..\obj\main.o
                                0x7cc (size before relaxing)
 .debug_str     0x00000d4a      0x5c7 ..\obj\stm32f4xx_rcc.o
                                0x7e8 (size before relaxing)
 .debug_str     0x00001311       0x3c ..\obj\timers.o
                                 0xcc (size before relaxing)
 .debug_str     0x0000134d      0x499 ..\obj\printf.o
                                0x6a7 (size before relaxing)
 .debug_str     0x000017e6      0x31b ..\obj\stm32f4xx_dcmi.o
                                0x471 (size before relaxing)
 .debug_str     0x00001b01      0x5ef ..\obj\tasks.o
                                0x740 (size before relaxing)
 .debug_str     0x000020f0      0x19c ..\obj\stm32f4xx_gpio.o
                                0x43b (size before relaxing)
 .debug_str     0x0000228c       0xce ..\obj\list.o
                                0x23e (size before relaxing)
 .debug_str     0x0000235a      0x116 ..\obj\system_stm32f4xx.o
                                0x342 (size before relaxing)
 .debug_str     0x00002470      0x148 ..\obj\syscalls.o
                                0x291 (size before relaxing)
 .debug_str     0x000025b8      0x36d ..\obj\stm32f4xx_dma.o
                                0x4e4 (size before relaxing)
 .debug_str     0x00002925      0x2f2 ..\obj\queue.o
                                0x4f2 (size before relaxing)
 .debug_str     0x00002c17      0x177 ..\obj\port.o
                                0x23a (size before relaxing)
 .debug_str     0x00002d8e      0x272 ..\obj\croutine.o
                                0x40c (size before relaxing)
 .debug_str     0x00003000      0x339 ..\obj\stm32f4xx_i2c.o
                                0x5fd (size before relaxing)
 .debug_str     0x00003339      0x1d0 ..\obj\misc.o
                                0x371 (size before relaxing)
 .debug_str     0x00003509      0x5d1 ..\obj\ov7670.o
                                0xb2e (size before relaxing)
 .debug_str     0x00003ada      0x16f ..\obj\heap_2.o
                                0x253 (size before relaxing)
 .debug_str     0x00003c49      0x9fc ..\obj\stm32f4xx_tim.o
                                0xd68 (size before relaxing)

.comment        0x00000000       0x70
 .comment       0x00000000       0x70 ..\obj\i2c.o
                                 0x71 (size before relaxing)
 .comment       0x00000000       0x71 ..\obj\stm32f4xx_usart.o
 .comment       0x00000000       0x71 ..\obj\startup_stm32f4xx.o
 .comment       0x00000000       0x71 ..\obj\main.o
 .comment       0x00000000       0x71 ..\obj\stm32f4xx_rcc.o
 .comment       0x00000000       0x71 ..\obj\timers.o
 .comment       0x00000000       0x71 ..\obj\printf.o
 .comment       0x00000000       0x71 ..\obj\stm32f4xx_dcmi.o
 .comment       0x00000000       0x71 ..\obj\tasks.o
 .comment       0x00000000       0x71 ..\obj\stm32f4xx_gpio.o
 .comment       0x00000000       0x71 ..\obj\list.o
 .comment       0x00000000       0x71 ..\obj\system_stm32f4xx.o
 .comment       0x00000000       0x71 ..\obj\syscalls.o
 .comment       0x00000000       0x71 ..\obj\stm32f4xx_dma.o
 .comment       0x00000000       0x71 ..\obj\queue.o
 .comment       0x00000000       0x71 ..\obj\port.o
 .comment       0x00000000       0x71 ..\obj\croutine.o
 .comment       0x00000000       0x71 ..\obj\stm32f4xx_i2c.o
 .comment       0x00000000       0x71 ..\obj\misc.o
 .comment       0x00000000       0x71 ..\obj\ov7670.o
 .comment       0x00000000       0x71 ..\obj\heap_2.o
 .comment       0x00000000       0x71 ..\obj\stm32f4xx_tim.o

.ARM.attributes
                0x00000000       0x3b
 .ARM.attributes
                0x00000000       0x3b ..\obj\i2c.o
 .ARM.attributes
                0x0000003b       0x3b ..\obj\stm32f4xx_usart.o
 .ARM.attributes
                0x00000076       0x3b ..\obj\startup_stm32f4xx.o
 .ARM.attributes
                0x000000b1       0x3b ..\obj\main.o
 .ARM.attributes
                0x000000ec       0x3b ..\obj\stm32f4xx_rcc.o
 .ARM.attributes
                0x00000127       0x3b ..\obj\timers.o
 .ARM.attributes
                0x00000162       0x3b ..\obj\printf.o
 .ARM.attributes
                0x0000019d       0x3b ..\obj\stm32f4xx_dcmi.o
 .ARM.attributes
                0x000001d8       0x3b ..\obj\tasks.o
 .ARM.attributes
                0x00000213       0x3b ..\obj\stm32f4xx_gpio.o
 .ARM.attributes
                0x0000024e       0x3b ..\obj\list.o
 .ARM.attributes
                0x00000289       0x3b ..\obj\system_stm32f4xx.o
 .ARM.attributes
                0x000002c4       0x3b ..\obj\syscalls.o
 .ARM.attributes
                0x000002ff       0x3b ..\obj\stm32f4xx_dma.o
 .ARM.attributes
                0x0000033a       0x3b ..\obj\queue.o
 .ARM.attributes
                0x00000375       0x3b ..\obj\port.o
 .ARM.attributes
                0x000003b0       0x3b ..\obj\croutine.o
 .ARM.attributes
                0x000003eb       0x3b ..\obj\stm32f4xx_i2c.o
 .ARM.attributes
                0x00000426       0x3b ..\obj\misc.o
 .ARM.attributes
                0x00000461       0x3b ..\obj\ov7670.o
 .ARM.attributes
                0x0000049c       0x3b ..\obj\heap_2.o
 .ARM.attributes
                0x000004d7       0x3b ..\obj\stm32f4xx_tim.o
 .ARM.attributes
                0x00000512       0x36 ..\..\..\..\..\..\..\dev\gcc-arm\arm-none-eabi\lib\armv7e-m\fpu\libg.a(lib_a-memcpy.o)
 .ARM.attributes
                0x00000548       0x36 ..\..\..\..\..\..\..\dev\gcc-arm\arm-none-eabi\lib\armv7e-m\fpu\libg.a(lib_a-memset.o)
 .ARM.attributes
                0x0000057e       0x36 ..\..\..\..\..\..\..\dev\gcc-arm\arm-none-eabi\lib\armv7e-m\fpu\libg.a(lib_a-strncpy.o)

.debug_frame    0x00000000     0x1e14
 .debug_frame   0x00000000       0xb8 ..\obj\i2c.o
 .debug_frame   0x000000b8      0x20c ..\obj\stm32f4xx_usart.o
 .debug_frame   0x000002c4       0x38 ..\obj\startup_stm32f4xx.o
 .debug_frame   0x000002fc      0x16c ..\obj\main.o
 .debug_frame   0x00000468      0x2e4 ..\obj\stm32f4xx_rcc.o
 .debug_frame   0x0000074c      0x214 ..\obj\printf.o
 .debug_frame   0x00000960      0x108 ..\obj\stm32f4xx_dcmi.o
 .debug_frame   0x00000a68      0x20c ..\obj\tasks.o
 .debug_frame   0x00000c74      0x118 ..\obj\stm32f4xx_gpio.o
 .debug_frame   0x00000d8c       0x68 ..\obj\list.o
 .debug_frame   0x00000df4       0x34 ..\obj\system_stm32f4xx.o
 .debug_frame   0x00000e28       0xa0 ..\obj\syscalls.o
 .debug_frame   0x00000ec8      0x168 ..\obj\stm32f4xx_dma.o
 .debug_frame   0x00001030      0x1a4 ..\obj\queue.o
 .debug_frame   0x000011d4      0x110 ..\obj\port.o
 .debug_frame   0x000012e4       0x8c ..\obj\croutine.o
 .debug_frame   0x00001370      0x240 ..\obj\stm32f4xx_i2c.o
 .debug_frame   0x000015b0       0x68 ..\obj\misc.o
 .debug_frame   0x00001618       0xb4 ..\obj\ov7670.o
 .debug_frame   0x000016cc       0x68 ..\obj\heap_2.o
 .debug_frame   0x00001734      0x65c ..\obj\stm32f4xx_tim.o
 .debug_frame   0x00001d90       0x2c ..\..\..\..\..\..\..\dev\gcc-arm\arm-none-eabi\lib\armv7e-m\fpu\libg.a(lib_a-memcpy.o)
 .debug_frame   0x00001dbc       0x2c ..\..\..\..\..\..\..\dev\gcc-arm\arm-none-eabi\lib\armv7e-m\fpu\libg.a(lib_a-memset.o)
 .debug_frame   0x00001de8       0x2c ..\..\..\..\..\..\..\dev\gcc-arm\arm-none-eabi\lib\armv7e-m\fpu\libg.a(lib_a-strncpy.o)
